target datalayout = "e-m:e-p270:32:32-p271:32:32-p272:64:64-i64:64-i128:128-f80:128-n8:16:32:64-S128"
target triple = "x86_64-pc-linux-gnu"

%struct.ossl_quic_frame_stream_st = type { i64, i64, i64, ptr, i8 }

; Function Attrs: nounwind uwtable
define internal i32 @encode_frame_hdr(ptr noundef %0, i64 noundef %1) #0 {
  %3 = alloca ptr, align 8
  %4 = alloca i64, align 8
  store ptr %0, ptr %3, align 8, !tbaa !21
  store i64 %1, ptr %4, align 8, !tbaa !8
  %5 = load ptr, ptr %3, align 8, !tbaa !21
  %6 = load i64, ptr %4, align 8, !tbaa !8
  %7 = call i32 @WPACKET_quic_write_vlint(ptr noundef %5, i64 noundef %6)
  ret i32 %7
}

; Function Attrs: nounwind uwtable
define i32 @ossl_quic_wire_encode_frame_stream_hdr(ptr noundef %0, ptr noundef %1) #0 {
  %3 = alloca i32, align 4
  %4 = alloca ptr, align 8
  %5 = alloca ptr, align 8
  %6 = alloca i64, align 8
  %7 = alloca i32, align 4
  store ptr %0, ptr %4, align 8, !tbaa !21
  store ptr %1, ptr %5, align 8, !tbaa !49
  call void @llvm.lifetime.start.p0(i64 8, ptr %6) #7
  store i64 8, ptr %6, align 8, !tbaa !8
  %8 = load ptr, ptr %5, align 8, !tbaa !49
  %9 = getelementptr inbounds nuw %struct.ossl_quic_frame_stream_st, ptr %8, i32 0, i32 1
  %10 = load i64, ptr %9, align 8, !tbaa !51
  %11 = icmp ne i64 %10, 0
  br i1 %11, label %12, label %15

12:                                               ; preds = %2
  %13 = load i64, ptr %6, align 8, !tbaa !8
  %14 = or i64 %13, 4
  store i64 %14, ptr %6, align 8, !tbaa !8
  br label %15

15:                                               ; preds = %12, %2
  %16 = load ptr, ptr %5, align 8, !tbaa !49
  %17 = getelementptr inbounds nuw %struct.ossl_quic_frame_stream_st, ptr %16, i32 0, i32 4
  %18 = load i8, ptr %17, align 8
  %19 = and i8 %18, 1
  %20 = zext i8 %19 to i32
  %21 = icmp ne i32 %20, 0
  br i1 %21, label %22, label %25

22:                                               ; preds = %15
  %23 = load i64, ptr %6, align 8, !tbaa !8
  %24 = or i64 %23, 2
  store i64 %24, ptr %6, align 8, !tbaa !8
  br label %25

25:                                               ; preds = %22, %15
  %26 = load ptr, ptr %5, align 8, !tbaa !49
  %27 = getelementptr inbounds nuw %struct.ossl_quic_frame_stream_st, ptr %26, i32 0, i32 4
  %28 = load i8, ptr %27, align 8
  %29 = lshr i8 %28, 1
  %30 = and i8 %29, 1
  %31 = zext i8 %30 to i32
  %32 = icmp ne i32 %31, 0
  br i1 %32, label %33, label %36

33:                                               ; preds = %25
  %34 = load i64, ptr %6, align 8, !tbaa !8
  %35 = or i64 %34, 1
  store i64 %35, ptr %6, align 8, !tbaa !8
  br label %36

36:                                               ; preds = %33, %25
  %37 = load ptr, ptr %4, align 8, !tbaa !21
  %38 = load i64, ptr %6, align 8, !tbaa !8
  %39 = call i32 @encode_frame_hdr(ptr noundef %37, i64 noundef %38)
  %40 = icmp ne i32 %39, 0
  br i1 %40, label %41, label %48

41:                                               ; preds = %36
  %42 = load ptr, ptr %4, align 8, !tbaa !21
  %43 = load ptr, ptr %5, align 8, !tbaa !49
  %44 = getelementptr inbounds nuw %struct.ossl_quic_frame_stream_st, ptr %43, i32 0, i32 0
  %45 = load i64, ptr %44, align 8, !tbaa !53
  %46 = call i32 @WPACKET_quic_write_vlint(ptr noundef %42, i64 noundef %45)
  %47 = icmp ne i32 %46, 0
  br i1 %47, label %49, label %48

48:                                               ; preds = %41, %36
  store i32 0, ptr %3, align 4
  store i32 1, ptr %7, align 4
  br label %78

49:                                               ; preds = %41
  %50 = load ptr, ptr %5, align 8, !tbaa !49
  %51 = getelementptr inbounds nuw %struct.ossl_quic_frame_stream_st, ptr %50, i32 0, i32 1
  %52 = load i64, ptr %51, align 8, !tbaa !51
  %53 = icmp ne i64 %52, 0
  br i1 %53, label %54, label %62

54:                                               ; preds = %49
  %55 = load ptr, ptr %4, align 8, !tbaa !21
  %56 = load ptr, ptr %5, align 8, !tbaa !49
  %57 = getelementptr inbounds nuw %struct.ossl_quic_frame_stream_st, ptr %56, i32 0, i32 1
  %58 = load i64, ptr %57, align 8, !tbaa !51
  %59 = call i32 @WPACKET_quic_write_vlint(ptr noundef %55, i64 noundef %58)
  %60 = icmp ne i32 %59, 0
  br i1 %60, label %62, label %61

61:                                               ; preds = %54
  store i32 0, ptr %3, align 4
  store i32 1, ptr %7, align 4
  br label %78

62:                                               ; preds = %54, %49
  %63 = load ptr, ptr %5, align 8, !tbaa !49
  %64 = getelementptr inbounds nuw %struct.ossl_quic_frame_stream_st, ptr %63, i32 0, i32 4
  %65 = load i8, ptr %64, align 8
  %66 = and i8 %65, 1
  %67 = zext i8 %66 to i32
  %68 = icmp ne i32 %67, 0
  br i1 %68, label %69, label %77

69:                                               ; preds = %62
  %70 = load ptr, ptr %4, align 8, !tbaa !21
  %71 = load ptr, ptr %5, align 8, !tbaa !49
  %72 = getelementptr inbounds nuw %struct.ossl_quic_frame_stream_st, ptr %71, i32 0, i32 2
  %73 = load i64, ptr %72, align 8, !tbaa !54
  %74 = call i32 @WPACKET_quic_write_vlint(ptr noundef %70, i64 noundef %73)
  %75 = icmp ne i32 %74, 0
  br i1 %75, label %77, label %76

76:                                               ; preds = %69
  store i32 0, ptr %3, align 4
  store i32 1, ptr %7, align 4
  br label %78

77:                                               ; preds = %69, %62
  store i32 1, ptr %3, align 4
  store i32 1, ptr %7, align 4
  br label %78

78:                                               ; preds = %77, %76, %61, %48
  call void @llvm.lifetime.end.p0(i64 8, ptr %6) #7
  %79 = load i32, ptr %3, align 4
  ret i32 %79
}