; Function Attrs: nounwind uwtable
define range(i32 0, 2) i32 @ossl_quic_wire_encode_frame_stream_hdr(ptr noundef %0, ptr noundef readonly captures(none) %1) local_unnamed_addr #2 {
  %3 = getelementptr inbounds nuw i8, ptr %1, i64 8
  %4 = load i64, ptr %3, align 8, !tbaa !35
  %.not = icmp eq i64 %4, 0
  %spec.select = select i1 %.not, i64 8, i64 12
  %5 = getelementptr inbounds nuw i8, ptr %1, i64 32
  %6 = load i8, ptr %5, align 8
  %7 = shl i8 %6, 1
  %8 = and i8 %7, 2
  %9 = zext nneg i8 %8 to i64
  %.1 = or disjoint i64 %spec.select, %9
  %10 = lshr i8 %6, 1
  %11 = and i8 %10, 1
  %12 = zext nneg i8 %11 to i64
  %.2 = or disjoint i64 %.1, %12
  %13 = tail call i32 @WPACKET_quic_write_vlint(ptr noundef %0, i64 noundef %.2) #12
  %.not20 = icmp eq i32 %13, 0
  br i1 %.not20, label %29, label %14

14:                                               ; preds = %2
  %15 = load i64, ptr %1, align 8, !tbaa !37
  %16 = tail call i32 @WPACKET_quic_write_vlint(ptr noundef %0, i64 noundef %15) #12
  %.not21 = icmp eq i32 %16, 0
  br i1 %.not21, label %29, label %17

17:                                               ; preds = %14
  %18 = load i64, ptr %3, align 8, !tbaa !35
  %.not22 = icmp eq i64 %18, 0
  br i1 %.not22, label %21, label %19

19:                                               ; preds = %17
  %20 = tail call i32 @WPACKET_quic_write_vlint(ptr noundef %0, i64 noundef %18) #12
  %.not23 = icmp eq i32 %20, 0
  br i1 %.not23, label %29, label %21

21:                                               ; preds = %19, %17
  %22 = load i8, ptr %5, align 8
  %23 = and i8 %22, 1
  %.not24 = icmp eq i8 %23, 0
  br i1 %.not24, label %28, label %24

24:                                               ; preds = %21
  %25 = getelementptr inbounds nuw i8, ptr %1, i64 16
  %26 = load i64, ptr %25, align 8, !tbaa !38
  %27 = tail call i32 @WPACKET_quic_write_vlint(ptr noundef %0, i64 noundef %26) #12
  %.not25 = icmp eq i32 %27, 0
  br i1 %.not25, label %29, label %28

28:                                               ; preds = %24, %21
  br label %29

29:                                               ; preds = %24, %19, %2, %14, %28
  %.016 = phi i32 [ 1, %28 ], [ 0, %14 ], [ 0, %2 ], [ 0, %19 ], [ 0, %24 ]
  ret i32 %.016
}